; Function Attrs: nounwind uwtable
define range(i32 -1, 1) i32 @H5Eclear2(i64 noundef %0) local_unnamed_addr #0 {
  %2 = alloca %struct.H5CX_node_t, align 8
  call void @llvm.lifetime.start.p0(i64 480, ptr nonnull %2) #7
  call void @llvm.memset.p0.i64(ptr noundef nonnull align 8 dereferenceable(480) %2, i8 0, i64 480, i1 false)
  %3 = load i8, ptr @H5_libinit_g, align 1, !tbaa !3, !range !7, !noundef !8
  %4 = trunc nuw i8 %3 to i1
  %5 = load i8, ptr @H5_libterm_g, align 1, !range !7
  %6 = trunc nuw i8 %5 to i1
  %7 = select i1 %4, i1 true, i1 %6
  br i1 %7, label %15, label %8, !prof !9

8:                                                ; preds = %1
  %9 = tail call i32 @H5_init_library() #7
  %10 = icmp slt i32 %9, 0
  br i1 %10, label %11, label %._crit_edge, !prof !10

._crit_edge:                                      ; preds = %8
  %.pre = load i8, ptr @H5_libterm_g, align 1, !range !7
  br label %15

11:                                               ; preds = %8
  %12 = load i64, ptr @H5E_FUNC_g, align 8, !tbaa !11
  %13 = load i64, ptr @H5E_CANTINIT_g, align 8, !tbaa !11
  %14 = tail call i32 (ptr, ptr, i32, i64, i64, ptr, ...) @H5E_printf_stack(ptr noundef nonnull @.str, ptr noundef nonnull @__func__.H5Eclear2, i32 noundef 603, i64 noundef %12, i64 noundef %13, ptr noundef nonnull @.str.1) #7
  br label %.thread23

15:                                               ; preds = %._crit_edge, %1
  %16 = phi i8 [ %.pre, %._crit_edge ], [ %5, %1 ]
  %17 = load i8, ptr @H5E_init_g, align 1, !tbaa !3, !range !7, !noundef !8
  %18 = trunc nuw i8 %17 to i1
  %19 = trunc nuw i8 %16 to i1
  %20 = select i1 %18, i1 true, i1 %19
  br i1 %20, label %28, label %21, !prof !9

21:                                               ; preds = %15
  store i8 1, ptr @H5E_init_g, align 1, !tbaa !3
  %22 = tail call i32 @H5E__init_package() #7
  %23 = icmp slt i32 %22, 0
  br i1 %23, label %24, label %28, !prof !13

24:                                               ; preds = %21
  store i8 0, ptr @H5E_init_g, align 1, !tbaa !3
  %25 = load i64, ptr @H5E_FUNC_g, align 8, !tbaa !11
  %26 = load i64, ptr @H5E_CANTINIT_g, align 8, !tbaa !11
  %27 = tail call i32 (ptr, ptr, i32, i64, i64, ptr, ...) @H5E_printf_stack(ptr noundef nonnull @.str, ptr noundef nonnull @__func__.H5Eclear2, i32 noundef 603, i64 noundef %25, i64 noundef %26, ptr noundef nonnull @.str.2) #7
  br label %.thread23

28:                                               ; preds = %15, %21
  %29 = call i32 @H5CX_push(ptr noundef nonnull %2) #7
  %30 = icmp slt i32 %29, 0
  br i1 %30, label %31, label %35, !prof !10

31:                                               ; preds = %28
  %32 = load i64, ptr @H5E_FUNC_g, align 8, !tbaa !11
  %33 = load i64, ptr @H5E_CANTSET_g, align 8, !tbaa !11
  %34 = call i32 (ptr, ptr, i32, i64, i64, ptr, ...) @H5E_printf_stack(ptr noundef nonnull @.str, ptr noundef nonnull @__func__.H5Eclear2, i32 noundef 603, i64 noundef %32, i64 noundef %33, ptr noundef nonnull @.str.3) #7
  br label %.thread23

35:                                               ; preds = %28
  %36 = icmp eq i64 %0, 0
  br i1 %36, label %45, label %37

37:                                               ; preds = %35
  %38 = call i32 @H5E_clear_stack() #7
  %39 = call ptr @H5I_object_verify(i64 noundef %0, i32 noundef 14) #7
  %40 = icmp eq ptr %39, null
  br i1 %40, label %41, label %45, !prof !14

41:                                               ; preds = %37
  %42 = load i64, ptr @H5E_ARGS_g, align 8, !tbaa !11
  %43 = load i64, ptr @H5E_BADTYPE_g, align 8, !tbaa !11
  %44 = call i32 (ptr, ptr, i32, i64, i64, ptr, ...) @H5E_printf_stack(ptr noundef nonnull @.str, ptr noundef nonnull @__func__.H5Eclear2, i32 noundef 613, i64 noundef %42, i64 noundef %43, ptr noundef nonnull @.str.21) #7
  br label %.thread29

45:                                               ; preds = %35, %37
  %.012 = phi ptr [ %39, %37 ], [ null, %35 ]
  %46 = call i32 @H5E__destroy_stack(ptr noundef %.012) #7
  %47 = icmp slt i32 %46, 0
  br i1 %47, label %48, label %53, !prof !14

48:                                               ; preds = %45
  %49 = load i64, ptr @H5E_ERROR_g, align 8, !tbaa !11
  %50 = load i64, ptr @H5E_CANTSET_g, align 8, !tbaa !11
  %51 = call i32 (ptr, ptr, i32, i64, i64, ptr, ...) @H5E_printf_stack(ptr noundef nonnull @.str, ptr noundef nonnull @__func__.H5Eclear2, i32 noundef 618, i64 noundef %49, i64 noundef %50, ptr noundef nonnull @.str.35) #7
  br label %.thread29

.thread29:                                        ; preds = %41, %48
  %52 = call i32 @H5CX_pop(i1 noundef zeroext true) #7
  br label %.thread23

53:                                               ; preds = %45
  %54 = call i32 @H5CX_pop(i1 noundef zeroext true) #7
  br label %56

.thread23:                                        ; preds = %31, %24, %11, %.thread29
  %55 = call i32 @H5E_dump_api_stack() #7
  br label %56

56:                                               ; preds = %53, %.thread23
  %.0111826 = phi i32 [ -1, %.thread23 ], [ 0, %53 ]
  call void @llvm.lifetime.end.p0(i64 480, ptr nonnull %2) #7
  ret i32 %.0111826
}